(lp0
(dp1
Vdomain
p2
V.linkedin.com
p3
sVname
p4
Vsdsc
p5
sVvalue
p6
V1%3A1SZM1shxDNbLt36wZwCgPgvN58iw%3D
p7
sVpath
p8
V/
p9
sVhttponly
p10
I01
sVsecure
p11
I00
sa(dp12
Vdomain
p13
V.linkedin.com
p14
sVname
p15
Vlang
p16
sVvalue
p17
V"v=2&lang=en-us"
p18
sVpath
p19
g9
sVhttponly
p20
I00
sVsecure
p21
I00
sa(dp22
Vdomain
p23
V.linkedin.com
p24
sVname
p25
V_lipt
p26
sVexpires
p27
VSa., 28 Mai 2016 00:08:26 GMT
p28
sVvalue
p29
V0_8xteH7rES0SsjKeLxr9KS6h9RUaF-euBQDDFSR7XKB4UFdBfxAzZAY08VUSo9peNoZz-1zUmEKilO2LsY5jo8nLk1b4C0q4q_gxtfhuOPIog_SVe-8mV46RtHRzRDPaaFQuWUzw5dPNCxexFK1V3hPa-I_eVYABTTFo1yFkKOe3JIX_5WB5pxeilzCRaNhWLAM4PRH3IS2pRHkrXiaFRQwgr766x4L5FVa1fH2yDPYgRcNXAYN42wRRV0nhImV8CkiA0lhr0vwe4liemfJlfwXTipEWPItSqCR4icbuaX1k8FNf3UrvJPm-MwSGdQ5saISpdcQ_-op9MD_8DdRyQFbjPkwC2egMgiXk6wzIaxhsYGrW5jua4yRsebB435HpYWGozZLLCmhuNIeZt5hKvFkRkc5JwEzIWlwQOuiFFSkp
p30
sVexpiry
p31
I1464394106
sVpath
p32
g9
sVhttponly
p33
I00
sVsecure
p34
I00
sa(dp35
Vdomain
p36
Vwww.linkedin.com
p37
sVname
p38
Vvisit
p39
sVexpires
p40
VSa., 28 Apr. 2018 00:08:25 GMT
p41
sVvalue
p42
V"v=1&M"
p43
sVexpiry
p44
I1524874105
sVpath
p45
g9
sVhttponly
p46
I00
sVsecure
p47
I00
sa(dp48
Vdomain
p49
Vwww.linkedin.com
p50
sVname
p51
Vshare_setting
p52
sVvalue
p53
VPUBLIC
p54
sVpath
p55
g9
sVhttponly
p56
I00
sVsecure
p57
I00
sa(dp58
Vdomain
p59
Vwww.linkedin.com
p60
sVname
p61
Vwutan
p62
sVvalue
p63
Vg7Ux6AbzIBSI6TLBRTShLAApkcG2OKD/FBGJX5vxOOs=
p64
sVpath
p65
g9
sVhttponly
p66
I00
sVsecure
p67
I00
sa(dp68
Vdomain
p69
Vwww.linkedin.com
p70
sVname
p71
Voz_props_fetch_size1_155888088
p72
sVexpires
p73
VDo., 28 Apr. 2016 03:08:25 GMT
p74
sVvalue
p75
V15
p76
sVexpiry
p77
I1461812905
sVpath
p78
g9
sVhttponly
p79
I00
sVsecure
p80
I00
sa(dp81
Vdomain
p82
Vwww.linkedin.com
p83
sVname
p84
VL1c
p85
sVvalue
p86
V333e6d68
p87
sVpath
p88
g9
sVhttponly
p89
I00
sVsecure
p90
I00
sa(dp91
Vdomain
p92
Vwww.linkedin.com
p93
sVname
p94
VbspNotice
p95
sVexpires
p96
VMo., 27 Juni 2016 00:08:24 GMT
p97
sVvalue
p98
V1%7CMozilla%2F5.0%20(X11%3B%20Linux%20x86_64)%20AppleWebKit%2F53%20(KHTML%2C%20like%20Gecko)%20Chrome%2F15.0.87
p99
sVexpiry
p100
I1466986104
sVpath
p101
g9
sVhttponly
p102
I00
sVsecure
p103
I00
sa(dp104
Vdomain
p105
V.linkedin.com
p106
sVname
p107
VRT
p108
sVexpires
p109
VDo., 28 Apr. 2016 00:18:24 GMT
p110
sVvalue
p111
Vs=1461802104360&r=https%3A%2F%2Fwww.linkedin.com%2F
p112
sVexpiry
p113
I1461802704
sVpath
p114
g9
sVhttponly
p115
I00
sVsecure
p116
I00
sa(dp117
Vdomain
p118
V.linkedin.com
p119
sVname
p120
Vlidc
p121
sVexpires
p122
VDo., 28 Apr. 2016 20:55:45 GMT
p123
sVvalue
p124
V"b=VB88:g=393:u=25:i=1461802104:t=1461876945:s=AQGXZwdcHd0_eypJwMk3LnwHbe4k9I8Q"
p125
sVexpiry
p126
I1461876945
sVpath
p127
g9
sVhttponly
p128
I00
sVsecure
p129
I00
sa(dp130
Vdomain
p131
V.www.linkedin.com
p132
sVname
p133
VJSESSIONID
p134
sVexpires
p135
VMi., 27 Juli 2016 00:08:24 GMT
p136
sVvalue
p137
V"ajax:5249586053816818187"
p138
sVexpiry
p139
I1469578104
sVpath
p140
g9
sVhttponly
p141
I00
sVsecure
p142
I01
sa(dp143
Vdomain
p144
V.www.linkedin.com
p145
sVname
p146
Vli_at
p147
sVexpires
p148
VMi., 27 Juli 2016 00:08:24 GMT
p149
sVvalue
p150
VAQEDAQlKqdgFMCq3AAABVFox9UsAAAFUWp_SS00AFPAfHFPH6dyY2Rvm5JA1N9dsxOk7jb7bqC4hPgAtdRwtEbSz5MEYr9VVEKUQ9LYPPFJifZIc-azTR2wJ4ctq8ePbIGbWPgrjkiW4Llv9Diw07SIY
p151
sVexpiry
p152
I1469578104
sVpath
p153
g9
sVhttponly
p154
I01
sVsecure
p155
I01
sa(dp156
Vdomain
p157
V.linkedin.com
p158
sVname
p159
Vliap
p160
sVexpires
p161
VMi., 27 Juli 2016 00:08:24 GMT
p162
sVvalue
p163
Vtrue
p164
sVexpiry
p165
I1469578104
sVpath
p166
g9
sVhttponly
p167
I00
sVsecure
p168
I00
sa(dp169
Vdomain
p170
V.www.linkedin.com
p171
sVname
p172
Vsl
p173
sVexpires
p174
VMi., 27 Juli 2016 00:08:24 GMT
p175
sVvalue
p176
V"v=1&YLxIq"
p177
sVexpiry
p178
I1469578104
sVpath
p179
g9
sVhttponly
p180
I00
sVsecure
p181
I00
sa(dp182
Vdomain
p183
Vwww.linkedin.com
p184
sVname
p185
VL1e
p186
sVvalue
p187
V6ac7eec3
p188
sVpath
p189
g9
sVhttponly
p190
I00
sVsecure
p191
I00
sa(dp192
Vdomain
p193
V.linkedin.com
p194
sVname
p195
V_gat
p196
sVexpires
p197
VDo., 28 Apr. 2016 00:18:22 GMT
p198
sVvalue
p199
V1
p200
sVexpiry
p201
I1461802702
sVpath
p202
g9
sVhttponly
p203
I00
sVsecure
p204
I00
sa(dp205
Vdomain
p206
V.linkedin.com
p207
sVname
p208
V_ga
p209
sVexpires
p210
VSa., 28 Apr. 2018 00:08:22 GMT
p211
sVvalue
p212
VGA1.2.573702900.1461802103
p213
sVexpiry
p214
I1524874102
sVpath
p215
g9
sVhttponly
p216
I00
sVsecure
p217
I00
sa(dp218
Vdomain
p219
V.www.linkedin.com
p220
sVname
p221
Vbscookie
p222
sVexpires
p223
VSa., 28 Apr. 2018 11:45:54 GMT
p224
sVvalue
p225
V"v=1&201604280008224f551b1d-22fa-4727-842a-7b79844e27b4AQHYJbcKoPw9Vc6SjULgReUacOby-KSh"
p226
sVexpiry
p227
I1524915954
sVpath
p228
g9
sVhttponly
p229
I01
sVsecure
p230
I01
sa(dp231
Vdomain
p232
V.linkedin.com
p233
sVname
p234
Vbcookie
p235
sVexpires
p236
VSa., 28 Apr. 2018 11:45:54 GMT
p237
sVvalue
p238
V"v=2&ab8fb41d-811f-45c2-8fe0-16d0cc547513"
p239
sVexpiry
p240
I1524915954
sVpath
p241
g9
sVhttponly
p242
I00
sVsecure
p243
I00
sa.